; Function Attrs: nounwind sspstrong uwtable
define dso_local noundef zeroext i1 @visit_type_q_obj_block_job_cancel_arg_members(ptr noundef %v, ptr noundef %obj, ptr noundef %errp) local_unnamed_addr #0 {
entry:
  %call = tail call zeroext i1 @visit_type_str(ptr noundef %v, ptr noundef nonnull @.str.103, ptr noundef %obj, ptr noundef %errp) #5
  br i1 %call, label %if.end, label %return

if.end:                                           ; preds = %entry
  %has_force = getelementptr inbounds nuw i8, ptr %obj, i64 8
  %call1 = tail call zeroext i1 @visit_optional(ptr noundef %v, ptr noundef nonnull @.str.268, ptr noundef nonnull %has_force) #5
  br i1 %call1, label %if.then2, label %if.end6

if.then2:                                         ; preds = %if.end
  %force = getelementptr inbounds nuw i8, ptr %obj, i64 9
  %call3 = tail call zeroext i1 @visit_type_bool(ptr noundef %v, ptr noundef nonnull @.str.268, ptr noundef nonnull %force, ptr noundef %errp) #5
  br i1 %call3, label %if.end6, label %return

if.end6:                                          ; preds = %if.then2, %if.end
  br label %return

return:                                           ; preds = %if.then2, %entry, %if.end6
  %retval.0 = phi i1 [ true, %if.end6 ], [ false, %entry ], [ false, %if.then2 ]
  ret i1 %retval.0
}